; Function Attrs: mustprogress nounwind uwtable
define dso_local void @_ZN4node10mksnapshot26CreatePerContextPropertiesEN2v85LocalINS1_6ObjectEEENS2_INS1_5ValueEEENS2_INS1_7ContextEEEPv(ptr %target.coerce, ptr nocapture readnone %unused.coerce, ptr nonnull %context.coerce, ptr nocapture readnone %priv) #3 {
entry:
  %call5.i.i = tail call noundef i32 @_ZN2v87Context29GetNumberOfEmbedderDataFieldsEv(ptr noundef nonnull align 1 dereferenceable(1) %context.coerce) #23
  %cmp.i.i = icmp ugt i32 %call5.i.i, 39
  tail call void @llvm.assume(i1 %cmp.i.i)
  %0 = load i64, ptr %context.coerce, align 8
  %sub.i.i.i.i = add i64 %0, 47
  %1 = inttoptr i64 %sub.i.i.i.i to ptr
  %2 = load i64, ptr %1, align 8
  %sub.i16.i.i.i = add i64 %2, 327
  %3 = inttoptr i64 %sub.i16.i.i.i to ptr
  %4 = load i64, ptr %3, align 8
  %5 = inttoptr i64 %4 to ptr
  %6 = load ptr, ptr @_ZN4node18ContextEmbedderTag18kNodeContextTagPtrE, align 8
  %cmp12.not.i.i = icmp eq ptr %6, %5
  tail call void @llvm.assume(i1 %cmp12.not.i.i)
  %sub.i16.i.i = add i64 %2, 319
  %7 = inttoptr i64 %sub.i16.i.i to ptr
  %8 = load i64, ptr %7, align 8
  %9 = inttoptr i64 %8 to ptr
  %call16 = tail call noundef ptr @_ZN4node5Realm14AddBindingDataINS_10mksnapshot11BindingDataEJEEEPT_N2v85LocalINS6_6ObjectEEEDpOT0_(ptr noundef nonnull align 8 dereferenceable(872) %9, ptr %target.coerce)
  ret void
}